target datalayout = "e-m:e-p270:32:32-p271:32:32-p272:64:64-i64:64-i128:128-f80:128-n8:16:32:64-S128"
target triple = "x86_64-unknown-linux-gnu"

%"class.re2::Regexp" = type { i8, i8, i16, i16, i16, %union.anon, ptr, %union.anon.0 }
%union.anon = type { ptr }
%union.anon.0 = type { %struct.anon.1 }
%struct.anon.1 = type { i32, ptr }

@_ZN3re26RegexpD1Ev = unnamed_addr alias void (ptr), ptr @_ZN3re26RegexpD2Ev

; Function Attrs: mustprogress nounwind uwtable
define noundef zeroext i1 @_ZN3re26Regexp12QuickDestroyEv(ptr noundef nonnull align 8 dereferenceable(40) %this) #0 align 2 {
entry:
  %retval = alloca i1, align 1
  %this.addr = alloca ptr, align 8
  store ptr %this, ptr %this.addr, align 8
  %this1 = load ptr, ptr %this.addr, align 8
  %nsub_ = getelementptr inbounds %"class.re2::Regexp", ptr %this1, i32 0, i32 4
  %0 = load i16, ptr %nsub_, align 2
  %conv = zext i16 %0 to i32
  %cmp = icmp eq i32 %conv, 0
  br i1 %cmp, label %if.then, label %if.end

if.then:                                          ; preds = %entry
  %isnull = icmp eq ptr %this1, null
  br i1 %isnull, label %delete.end, label %delete.notnull

delete.notnull:                                   ; preds = %if.then
  call void @_ZN3re26RegexpD1Ev(ptr noundef nonnull align 8 dereferenceable(40) %this1) #16
  call void @_ZdlPv(ptr noundef %this1) #17
  br label %delete.end

delete.end:                                       ; preds = %delete.notnull, %if.then
  store i1 true, ptr %retval, align 1
  br label %return

if.end:                                           ; preds = %entry
  store i1 false, ptr %retval, align 1
  br label %return

return:                                           ; preds = %if.end, %delete.end
  %1 = load i1, ptr %retval, align 1
  ret i1 %1
}