; Function Attrs: mustprogress nounwind uwtable
define noundef zeroext i1 @_ZN3re26Regexp12QuickDestroyEv(ptr noundef nonnull align 8 dereferenceable(40) %this) local_unnamed_addr #2 align 2 {
entry:
  %nsub_ = getelementptr inbounds i8, ptr %this, i64 6
  %0 = load i16, ptr %nsub_, align 2
  %cmp = icmp eq i16 %0, 0
  br i1 %cmp, label %delete.notnull, label %return

delete.notnull:                                   ; preds = %entry
  tail call void @_ZN3re26RegexpD1Ev(ptr noundef nonnull align 8 dereferenceable(40) %this) #25
  tail call void @_ZdlPv(ptr noundef nonnull %this) #26
  br label %return

return:                                           ; preds = %entry, %delete.notnull
  ret i1 %cmp
}